; Function Attrs: mustprogress uwtable
define hidden noundef zeroext i1 @_ZNK8seq_util3rex10is_epsilonEP4expr(ptr noundef nonnull readonly align 8 captures(none) dereferenceable(80) %0, ptr noundef readonly captures(none) %1) local_unnamed_addr #3 align 2 {
  %3 = getelementptr inbounds nuw i8, ptr %0, i64 16
  %4 = load i32, ptr %3, align 8, !tbaa !207
  %5 = getelementptr inbounds nuw i8, ptr %1, i64 4
  %6 = load i32, ptr %5, align 4
  %7 = and i32 %6, 65535
  %8 = icmp eq i32 %7, 0
  br i1 %8, label %9, label %_ZNK8seq_util3rex8is_to_reEPK4exprRPS1_.exit.thread

9:                                                ; preds = %2
  %10 = getelementptr inbounds nuw i8, ptr %1, i64 16
  %11 = load ptr, ptr %10, align 8, !tbaa !186
  %12 = getelementptr inbounds nuw i8, ptr %11, i64 24
  %13 = load ptr, ptr %12, align 8, !tbaa !41
  %.not.i.i.i.i.i = icmp eq ptr %13, null
  br i1 %.not.i.i.i.i.i, label %_ZNK8seq_util3rex8is_to_reEPK4exprRPS1_.exit.thread, label %_ZNK8seq_util3rex8is_to_reEPK4expr.exit.i

_ZNK8seq_util3rex8is_to_reEPK4expr.exit.i:        ; preds = %9
  %14 = load i32, ptr %13, align 8, !tbaa !44
  %15 = icmp eq i32 %14, %4
  %16 = getelementptr inbounds nuw i8, ptr %13, i64 4
  %17 = load i32, ptr %16, align 4
  %18 = icmp eq i32 %17, 15
  %19 = select i1 %15, i1 %18, i1 false
  br i1 %19, label %20, label %_ZNK8seq_util3rex8is_to_reEPK4exprRPS1_.exit.thread

20:                                               ; preds = %_ZNK8seq_util3rex8is_to_reEPK4expr.exit.i
  %21 = getelementptr inbounds nuw i8, ptr %1, i64 24
  %22 = load i32, ptr %21, align 8, !tbaa !191
  %23 = icmp eq i32 %22, 1
  br i1 %23, label %24, label %_ZNK8seq_util3rex8is_to_reEPK4exprRPS1_.exit.thread

24:                                               ; preds = %20
  %25 = getelementptr inbounds nuw i8, ptr %1, i64 32
  %26 = load ptr, ptr %25, align 8, !tbaa !178
  %27 = load ptr, ptr %0, align 8, !tbaa !258
  %28 = getelementptr inbounds nuw i8, ptr %27, i64 32
  %29 = tail call noundef zeroext i1 @_ZNK8seq_util3str8is_emptyEPK4expr(ptr noundef nonnull align 8 dereferenceable(20) %28, ptr noundef %26)
  br label %_ZNK8seq_util3rex8is_to_reEPK4exprRPS1_.exit.thread

_ZNK8seq_util3rex8is_to_reEPK4exprRPS1_.exit.thread: ; preds = %9, %2, %_ZNK8seq_util3rex8is_to_reEPK4expr.exit.i, %20, %24
  %30 = phi i1 [ %29, %24 ], [ false, %20 ], [ false, %_ZNK8seq_util3rex8is_to_reEPK4expr.exit.i ], [ false, %2 ], [ false, %9 ]
  ret i1 %30
}